Certificate:
    Data:
        Version: 3 (0x2)
        Serial Number:
            26:5f:03:70:3f:77:b8:3e:ee:08:2a:03:8a:f7:2d:02
        Signature Algorithm: sha256WithRSAEncryption
        Issuer: CN=openvpn
        Validity
            Not Before: Jun 29 09:10:28 2023 GMT
            Not After : Oct  1 09:10:28 2025 GMT
        Subject: CN=adrian
        Subject Public Key Info:
            Public Key Algorithm: rsaEncryption
                RSA Public-Key: (2048 bit)
                Modulus:
                    00:a8:1a:56:20:59:31:3c:b9:86:3b:26:3e:cf:2b:
                    ae:f8:95:a3:ac:e2:10:32:50:e9:97:34:f4:e2:42:
                    72:09:99:44:63:7a:5d:4f:91:3a:40:78:1d:25:67:
                    81:87:28:c8:3d:01:0b:06:d1:62:84:12:e4:b8:57:
                    ef:2f:cd:04:8b:31:2c:05:72:48:58:01:38:1e:3b:
                    ed:63:21:ae:d8:43:1c:89:ec:56:0b:9f:a4:fb:3e:
                    f1:50:1d:a6:8f:2c:1f:ff:7e:63:5d:72:28:c5:98:
                    97:7d:e5:0e:39:80:48:a6:a0:73:f3:c8:f5:61:1e:
                    cb:e6:0c:68:44:e8:13:59:06:be:23:35:37:8f:72:
                    63:2b:45:7a:17:08:a8:2e:e0:30:46:d8:cb:d5:c3:
                    b1:dc:e0:91:68:60:0a:ca:77:d9:1f:9d:80:1d:88:
                    9e:40:02:10:d2:f7:67:d0:26:c7:9e:03:7f:75:01:
                    17:55:30:4e:27:e0:a8:ea:27:a0:26:3a:28:35:13:
                    ae:99:2a:39:9e:e9:2a:30:d3:c0:73:5e:db:4f:99:
                    6c:fa:0a:2d:96:82:cf:9a:82:3e:14:b3:0b:e0:85:
                    bb:23:85:3e:40:c9:c0:83:2a:24:b7:64:0d:94:1a:
                    64:a3:ae:05:89:43:25:c0:5b:d7:b8:fe:00:fe:e8:
                    71:e5
                Exponent: 65537 (0x10001)
        X509v3 extensions:
            X509v3 Basic Constraints: 
                CA:FALSE
            X509v3 Subject Key Identifier: 
                D0:49:9A:EA:C3:1A:49:BC:53:DE:55:A3:E9:77:52:60:2F:12:55:55
            X509v3 Authority Key Identifier: 
                keyid:CE:FC:D2:CD:28:A7:A9:BA:65:D5:83:BA:0C:6E:64:F1:6A:67:F3:45
                DirName:/CN=openvpn
                serial:03:A5:5C:AA:A1:69:35:C9:37:A6:FF:A6:BC:06:35:BF:34:1D:52:C3

            X509v3 Extended Key Usage: 
                TLS Web Client Authentication
            X509v3 Key Usage: 
                Digital Signature
    Signature Algorithm: sha256WithRSAEncryption
         59:dc:e2:14:e9:5f:80:f1:62:5d:3c:7e:8a:38:2e:48:9d:68:
         2e:6f:d0:f5:83:40:49:20:12:53:1a:20:08:06:37:a8:32:de:
         c9:4e:7c:52:e8:a1:63:bf:8a:fc:2f:c1:c9:d1:ae:42:87:a3:
         be:9f:ea:c5:ec:b8:bc:2d:c8:a2:99:e0:91:7f:ef:c4:da:d8:
         3c:18:27:77:cb:bb:37:a7:b9:ce:57:1d:31:9f:35:a5:bb:54:
         b6:20:c2:82:91:69:e1:b7:a0:2f:93:e9:24:f3:9e:c1:a7:6a:
         95:21:a1:3c:a0:e4:97:0f:18:84:04:8d:ac:81:eb:61:f0:06:
         1c:cb:61:77:2c:e1:ec:8d:05:17:8b:03:2b:29:07:03:f0:7d:
         3c:6b:f5:8b:bb:54:88:9a:77:7d:67:cc:21:dd:f5:ca:12:00:
         b1:d2:96:2c:20:f0:27:eb:44:99:c1:b2:c2:94:7d:c2:d5:9a:
         5a:ee:bb:86:72:68:6f:2d:c7:44:89:07:78:9b:5f:37:1d:e0:
         65:3c:ce:66:cd:2c:18:5d:c0:31:4e:92:51:39:41:f0:c2:a7:
         d5:e5:99:09:42:04:b3:67:4b:74:8b:a8:1b:1e:01:94:c2:a6:
         b6:7d:1a:c6:ab:e9:e8:0b:91:e8:a9:a6:3c:29:34:2e:62:a2:
         e4:1b:5e:2a
-----BEGIN CERTIFICATE-----
MIIDTDCCAjSgAwIBAgIQJl8DcD93uD7uCCoDivctAjANBgkqhkiG9w0BAQsFADAS
MRAwDgYDVQQDDAdvcGVudnBuMB4XDTIzMDYyOTA5MTAyOFoXDTI1MTAwMTA5MTAy
OFowETEPMA0GA1UEAwwGYWRyaWFuMIIBIjANBgkqhkiG9w0BAQEFAAOCAQ8AMIIB
CgKCAQEAqBpWIFkxPLmGOyY+zyuu+JWjrOIQMlDplzT04kJyCZlEY3pdT5E6QHgd
JWeBhyjIPQELBtFihBLkuFfvL80EizEsBXJIWAE4HjvtYyGu2EMciexWC5+k+z7x
UB2mjywf/35jXXIoxZiXfeUOOYBIpqBz88j1YR7L5gxoROgTWQa+IzU3j3JjK0V6
FwioLuAwRtjL1cOx3OCRaGAKynfZH52AHYieQAIQ0vdn0CbHngN/dQEXVTBOJ+Co
6iegJjooNROumSo5nukqMNPAc17bT5ls+gotloLPmoI+FLML4IW7I4U+QMnAgyok
t2QNlBpko64FiUMlwFvXuP4A/uhx5QIDAQABo4GeMIGbMAkGA1UdEwQCMAAwHQYD
VR0OBBYEFNBJmurDGkm8U95Vo+l3UmAvElVVME0GA1UdIwRGMESAFM780s0op6m6
ZdWDugxuZPFqZ/NFoRakFDASMRAwDgYDVQQDDAdvcGVudnBughQDpVyqoWk1yTem
/6a8BjW/NB1SwzATBgNVHSUEDDAKBggrBgEFBQcDAjALBgNVHQ8EBAMCB4AwDQYJ
KoZIhvcNAQELBQADggEBAFnc4hTpX4DxYl08foo4LkidaC5v0PWDQEkgElMaIAgG
N6gy3slOfFLooWO/ivwvwcnRrkKHo76f6sXsuLwtyKKZ4JF/78Ta2DwYJ3fLuzen
uc5XHTGfNaW7VLYgwoKRaeG3oC+T6STznsGnapUhoTyg5JcPGIQEjayB62HwBhzL
YXcs4eyNBReLAyspBwPwfTxr9Yu7VIiad31nzCHd9coSALHSliwg8CfrRJnBssKU
fcLVmlruu4ZyaG8tx0SJB3ibXzcd4GU8zmbNLBhdwDFOklE5QfDCp9XlmQlCBLNn
S3SLqBseAZTCprZ9Gsar6egLkeippjwpNC5iouQbXio=
-----END CERTIFICATE-----
