Certificate:
    Data:
        Version: 3 (0x2)
        Serial Number:
            5d:06:68:5c:2f:a0:07:83:e3:24:d8:58:94:67:0d:bb
        Signature Algorithm: sha256WithRSAEncryption
        Issuer: CN=openvpn
        Validity
            Not Before: Jun 28 14:45:10 2023 GMT
            Not After : Sep 30 14:45:10 2025 GMT
        Subject: CN=openvpn
        Subject Public Key Info:
            Public Key Algorithm: rsaEncryption
                RSA Public-Key: (2048 bit)
                Modulus:
                    00:b1:04:60:34:3e:b1:69:b8:eb:f9:fe:80:ae:3f:
                    b0:e6:6d:0d:6b:66:f5:2d:4b:db:12:0d:8a:82:0f:
                    d0:db:88:a0:c0:d2:49:12:35:5e:ec:0c:87:35:e1:
                    fc:11:9e:41:ca:01:22:c0:4d:0c:c4:dc:55:7e:98:
                    2b:86:cb:d4:57:1e:a5:43:f2:e1:83:a0:50:ae:fd:
                    48:dd:b6:44:60:ae:33:18:26:10:7e:5c:d1:49:9a:
                    5d:8b:8c:b5:27:6e:68:77:2b:58:1d:15:1c:f3:1a:
                    47:f1:8b:fc:e5:00:6b:1e:31:8a:9d:e2:f4:9c:f9:
                    33:19:03:d1:ee:a3:71:d3:84:db:0e:16:94:f2:a2:
                    04:e4:24:2e:7d:3d:67:03:0d:ba:f9:91:2f:81:76:
                    8a:01:61:d8:93:82:22:b5:97:30:59:54:07:39:a8:
                    38:ba:06:df:c7:b9:e9:d5:09:b8:25:ea:e8:64:5e:
                    01:2f:91:df:05:3d:54:cb:47:3b:7c:51:c1:6d:55:
                    26:3b:4b:1f:3c:40:7e:da:fc:2d:19:36:4f:08:5a:
                    4b:09:94:ca:a9:2b:69:96:66:c5:02:83:e7:6e:9b:
                    54:ae:62:c4:16:0c:ac:c7:37:2a:93:89:02:63:a9:
                    5c:99:07:7f:f5:45:ec:58:90:a7:5e:42:d2:eb:16:
                    4d:f9
                Exponent: 65537 (0x10001)
        X509v3 extensions:
            X509v3 Basic Constraints: 
                CA:FALSE
            X509v3 Subject Key Identifier: 
                11:A3:27:F4:EA:8F:C5:25:17:26:80:B7:5E:F5:9A:97:E7:77:94:70
            X509v3 Authority Key Identifier: 
                keyid:CE:FC:D2:CD:28:A7:A9:BA:65:D5:83:BA:0C:6E:64:F1:6A:67:F3:45
                DirName:/CN=openvpn
                serial:03:A5:5C:AA:A1:69:35:C9:37:A6:FF:A6:BC:06:35:BF:34:1D:52:C3

            X509v3 Extended Key Usage: 
                TLS Web Client Authentication
            X509v3 Key Usage: 
                Digital Signature
    Signature Algorithm: sha256WithRSAEncryption
         7f:8a:5c:ea:be:bf:44:e8:2d:1b:a9:c6:90:f2:35:24:90:29:
         31:4f:0f:07:4b:91:cf:bf:09:83:07:91:fb:11:a8:c5:19:9b:
         8c:a5:d1:02:83:1d:6e:5f:51:09:52:37:14:7a:a2:50:48:bb:
         f6:6f:21:c9:f6:c4:d2:cf:87:0e:0b:fe:63:bf:87:d2:95:4f:
         07:da:9b:30:43:b5:69:ad:3f:44:25:88:d5:ef:f1:8d:37:24:
         a7:83:7c:3f:c0:e3:07:f7:98:46:55:3f:28:62:7c:33:97:a0:
         7d:55:0c:35:f8:fc:cf:49:1c:00:d9:f5:41:6c:07:19:b3:5c:
         2e:21:7c:13:d9:c2:4f:08:f8:7b:cb:22:76:fe:ec:41:e9:ee:
         df:c9:c1:ce:c8:9c:10:85:99:e4:60:65:d3:5d:7b:f8:f4:d7:
         13:c2:ca:f9:8e:48:b8:8e:02:d9:1c:d3:b5:08:d8:fb:44:33:
         3d:59:04:83:89:89:ab:a5:e7:fc:f6:8b:e5:0f:24:bd:de:2a:
         2f:cc:e1:92:dd:5e:df:0e:db:e6:7b:23:cd:1f:16:ab:26:c6:
         f0:7b:d3:66:83:35:f1:d6:5f:ef:84:20:ad:09:0c:fb:a8:a8:
         b8:a5:1a:96:e9:3e:27:fe:ec:df:8f:62:de:78:20:ed:63:a9:
         b1:c0:a7:10
-----BEGIN CERTIFICATE-----
MIIDTTCCAjWgAwIBAgIQXQZoXC+gB4PjJNhYlGcNuzANBgkqhkiG9w0BAQsFADAS
MRAwDgYDVQQDDAdvcGVudnBuMB4XDTIzMDYyODE0NDUxMFoXDTI1MDkzMDE0NDUx
MFowEjEQMA4GA1UEAwwHb3BlbnZwbjCCASIwDQYJKoZIhvcNAQEBBQADggEPADCC
AQoCggEBALEEYDQ+sWm46/n+gK4/sOZtDWtm9S1L2xINioIP0NuIoMDSSRI1XuwM
hzXh/BGeQcoBIsBNDMTcVX6YK4bL1FcepUPy4YOgUK79SN22RGCuMxgmEH5c0Uma
XYuMtSduaHcrWB0VHPMaR/GL/OUAax4xip3i9Jz5MxkD0e6jcdOE2w4WlPKiBOQk
Ln09ZwMNuvmRL4F2igFh2JOCIrWXMFlUBzmoOLoG38e56dUJuCXq6GReAS+R3wU9
VMtHO3xRwW1VJjtLHzxAftr8LRk2TwhaSwmUyqkraZZmxQKD526bVK5ixBYMrMc3
KpOJAmOpXJkHf/VF7FiQp15C0usWTfkCAwEAAaOBnjCBmzAJBgNVHRMEAjAAMB0G
A1UdDgQWBBQRoyf06o/FJRcmgLde9ZqX53eUcDBNBgNVHSMERjBEgBTO/NLNKKep
umXVg7oMbmTxamfzRaEWpBQwEjEQMA4GA1UEAwwHb3BlbnZwboIUA6VcqqFpNck3
pv+mvAY1vzQdUsMwEwYDVR0lBAwwCgYIKwYBBQUHAwIwCwYDVR0PBAQDAgeAMA0G
CSqGSIb3DQEBCwUAA4IBAQB/ilzqvr9E6C0bqcaQ8jUkkCkxTw8HS5HPvwmDB5H7
EajFGZuMpdECgx1uX1EJUjcUeqJQSLv2byHJ9sTSz4cOC/5jv4fSlU8H2pswQ7Vp
rT9EJYjV7/GNNySng3w/wOMH95hGVT8oYnwzl6B9VQw1+PzPSRwA2fVBbAcZs1wu
IXwT2cJPCPh7yyJ2/uxB6e7fycHOyJwQhZnkYGXTXXv49NcTwsr5jki4jgLZHNO1
CNj7RDM9WQSDiYmrpef89ovlDyS93iovzOGS3V7fDtvmeyPNHxarJsbwe9NmgzXx
1l/vhCCtCQz7qKi4pRqW6T4n/uzfj2LeeCDtY6mxwKcQ
-----END CERTIFICATE-----
