Certificate:
    Data:
        Version: 3 (0x2)
        Serial Number:
            fa:1b:7b:8d:61:34:4d:81:ff:5f:8a:cb:73:8f:76:b5
        Signature Algorithm: sha256WithRSAEncryption
        Issuer: CN=openvpn
        Validity
            Not Before: Jun 29 12:56:08 2023 GMT
            Not After : Oct  1 12:56:08 2025 GMT
        Subject: CN=testvpn-fixed
        Subject Public Key Info:
            Public Key Algorithm: rsaEncryption
                RSA Public-Key: (2048 bit)
                Modulus:
                    00:c4:fd:e2:96:4b:b9:c6:79:f0:7d:d6:a2:22:1a:
                    ff:2c:4e:eb:24:33:27:83:26:bf:b3:6f:3a:21:bf:
                    eb:b4:ab:70:dc:75:34:95:86:44:29:01:46:11:37:
                    34:95:0a:2a:42:72:e5:90:0a:f6:35:e3:10:10:08:
                    29:40:0a:d7:66:a6:00:7f:e3:71:07:36:a0:05:7e:
                    4b:2d:2e:2e:66:d8:09:0a:e3:f2:b0:0c:47:46:ab:
                    7d:d3:e0:7f:fc:93:99:cc:ab:3f:97:9c:4d:bf:df:
                    26:b1:e4:a3:a7:e7:c4:b6:f6:c5:4e:d5:c0:0c:72:
                    34:67:c9:7f:ab:eb:70:00:43:8f:4e:ee:78:dc:e6:
                    56:ec:9a:8e:5d:c8:c3:11:da:6c:33:75:a5:34:c7:
                    4c:22:47:62:ea:5b:23:40:12:d3:e9:43:01:e3:94:
                    2b:4d:45:81:d1:17:de:5e:65:75:29:66:ea:61:a5:
                    fb:0b:17:55:a3:bf:bf:d5:23:30:af:05:b3:82:c8:
                    40:0b:79:f6:70:d8:c2:a3:ba:3f:e0:49:49:75:e2:
                    31:0c:a9:9d:4f:85:08:35:79:c6:df:03:f3:c0:af:
                    0d:2f:51:80:83:02:f8:ff:93:12:ef:99:47:ec:e1:
                    bb:43:50:aa:87:70:33:bc:79:d8:21:42:ed:e2:54:
                    88:61
                Exponent: 65537 (0x10001)
        X509v3 extensions:
            X509v3 Basic Constraints: 
                CA:FALSE
            X509v3 Subject Key Identifier: 
                58:3D:68:38:3D:DD:E3:6B:C3:55:82:23:45:00:45:CF:E8:8D:65:D6
            X509v3 Authority Key Identifier: 
                keyid:CE:FC:D2:CD:28:A7:A9:BA:65:D5:83:BA:0C:6E:64:F1:6A:67:F3:45
                DirName:/CN=openvpn
                serial:03:A5:5C:AA:A1:69:35:C9:37:A6:FF:A6:BC:06:35:BF:34:1D:52:C3

            X509v3 Extended Key Usage: 
                TLS Web Client Authentication
            X509v3 Key Usage: 
                Digital Signature
    Signature Algorithm: sha256WithRSAEncryption
         09:4f:3c:ed:a9:34:4d:12:91:50:61:16:45:19:65:ba:0a:79:
         46:71:fe:b3:00:12:56:6a:c3:27:81:3b:f3:16:00:cf:5d:f8:
         87:66:fc:3e:db:68:35:27:a1:83:18:b1:65:04:72:06:5e:cb:
         49:14:04:b8:0c:0a:ad:b2:2f:1e:cf:c1:84:62:41:64:7e:cc:
         64:17:d1:d4:1c:22:68:3f:fa:4a:54:4a:09:96:2c:a5:47:e8:
         17:82:be:df:7a:c8:85:9a:57:ee:42:6c:db:97:20:a5:ac:c1:
         51:cb:01:0e:87:4d:38:b0:18:83:6c:d1:b0:f8:20:a8:6f:d9:
         50:72:86:2e:c0:0a:4f:49:20:1f:8c:e3:60:a8:ab:ec:b5:cf:
         27:a9:47:98:5c:34:96:3e:1c:21:dd:95:e4:c9:8c:b3:5d:7d:
         9f:f2:f3:82:d3:23:4f:47:46:52:57:d4:94:fc:96:63:ae:71:
         85:0f:a6:b5:1c:44:53:9e:69:22:41:ef:be:98:08:34:52:c4:
         77:46:45:49:8e:44:7f:ad:64:44:a1:2b:b5:46:f6:57:1f:14:
         f3:90:bc:e6:ce:76:1c:58:ac:c0:42:61:dd:5d:94:39:e0:aa:
         4e:66:cf:6c:92:0c:3c:b4:18:ce:6b:d5:ce:53:e6:1b:f7:86:
         26:e5:39:22
-----BEGIN CERTIFICATE-----
MIIDVDCCAjygAwIBAgIRAPobe41hNE2B/1+Ky3OPdrUwDQYJKoZIhvcNAQELBQAw
EjEQMA4GA1UEAwwHb3BlbnZwbjAeFw0yMzA2MjkxMjU2MDhaFw0yNTEwMDExMjU2
MDhaMBgxFjAUBgNVBAMMDXRlc3R2cG4tZml4ZWQwggEiMA0GCSqGSIb3DQEBAQUA
A4IBDwAwggEKAoIBAQDE/eKWS7nGefB91qIiGv8sTuskMyeDJr+zbzohv+u0q3Dc
dTSVhkQpAUYRNzSVCipCcuWQCvY14xAQCClACtdmpgB/43EHNqAFfkstLi5m2AkK
4/KwDEdGq33T4H/8k5nMqz+XnE2/3yax5KOn58S29sVO1cAMcjRnyX+r63AAQ49O
7njc5lbsmo5dyMMR2mwzdaU0x0wiR2LqWyNAEtPpQwHjlCtNRYHRF95eZXUpZuph
pfsLF1Wjv7/VIzCvBbOCyEALefZw2MKjuj/gSUl14jEMqZ1PhQg1ecbfA/PArw0v
UYCDAvj/kxLvmUfs4btDUKqHcDO8edghQu3iVIhhAgMBAAGjgZ4wgZswCQYDVR0T
BAIwADAdBgNVHQ4EFgQUWD1oOD3d42vDVYIjRQBFz+iNZdYwTQYDVR0jBEYwRIAU
zvzSzSinqbpl1YO6DG5k8Wpn80WhFqQUMBIxEDAOBgNVBAMMB29wZW52cG6CFAOl
XKqhaTXJN6b/prwGNb80HVLDMBMGA1UdJQQMMAoGCCsGAQUFBwMCMAsGA1UdDwQE
AwIHgDANBgkqhkiG9w0BAQsFAAOCAQEACU887ak0TRKRUGEWRRllugp5RnH+swAS
VmrDJ4E78xYAz134h2b8PttoNSehgxixZQRyBl7LSRQEuAwKrbIvHs/BhGJBZH7M
ZBfR1BwiaD/6SlRKCZYspUfoF4K+33rIhZpX7kJs25cgpazBUcsBDodNOLAYg2zR
sPggqG/ZUHKGLsAKT0kgH4zjYKir7LXPJ6lHmFw0lj4cId2V5MmMs119n/LzgtMj
T0dGUlfUlPyWY65xhQ+mtRxEU55pIkHvvpgINFLEd0ZFSY5Ef61kRKErtUb2Vx8U
85C85s52HFiswEJh3V2UOeCqTmbPbJIMPLQYzmvVzlPmG/eGJuU5Ig==
-----END CERTIFICATE-----
