Certificate:
    Data:
        Version: 3 (0x2)
        Serial Number:
            43:ee:00:70:c1:55:e1:59:6f:99:6f:c7:25:20:49:79
        Signature Algorithm: sha256WithRSAEncryption
        Issuer: CN=openvpn
        Validity
            Not Before: Jun 28 14:44:06 2023 GMT
            Not After : Sep 30 14:44:06 2025 GMT
        Subject: CN=159.223.237.157
        Subject Public Key Info:
            Public Key Algorithm: rsaEncryption
                RSA Public-Key: (2048 bit)
                Modulus:
                    00:9b:fb:1f:a9:80:5c:fe:2d:3a:50:fd:ff:84:d1:
                    ca:24:3b:a3:c5:95:4a:6b:11:9a:ed:93:27:33:0c:
                    85:d5:8b:1f:61:e5:e7:bd:56:a4:44:ff:1b:65:77:
                    92:a4:99:38:f5:76:fe:a0:92:20:ed:af:3f:33:79:
                    60:d9:c7:a1:40:71:36:71:60:b5:6a:ad:df:fc:5f:
                    08:fe:7d:44:3d:d5:64:9d:f9:56:00:a9:15:fa:34:
                    72:26:a9:01:23:b4:9c:57:b8:12:64:ad:7d:0d:b3:
                    85:e8:4a:19:69:2e:02:48:ed:47:4c:ae:76:4e:84:
                    66:c6:ea:53:ba:0e:9e:73:ad:39:07:b4:97:9d:ab:
                    7f:35:48:b7:c3:2a:be:8f:87:ab:c8:ba:45:47:01:
                    1d:d5:26:13:f3:18:b0:85:5b:24:69:5e:b9:58:d8:
                    53:d9:60:3e:0d:85:d7:b8:09:42:d7:04:87:27:7a:
                    eb:ad:01:58:ce:48:9b:e3:f5:01:92:92:30:7f:0d:
                    5c:0f:95:59:a9:f1:eb:89:75:e0:d1:12:e6:3f:e1:
                    43:16:ce:39:07:83:18:c0:94:1b:97:1a:8f:47:3b:
                    48:15:aa:4f:a1:43:8e:e7:10:d9:d1:24:25:8f:ce:
                    8c:21:fe:3a:e1:62:bc:45:fd:3e:b8:5d:df:b1:3e:
                    a3:45
                Exponent: 65537 (0x10001)
        X509v3 extensions:
            X509v3 Basic Constraints: 
                CA:FALSE
            X509v3 Subject Key Identifier: 
                6C:65:1D:37:30:B5:28:D4:AF:AD:7E:00:D7:07:A3:BE:0F:96:2C:47
            X509v3 Authority Key Identifier: 
                keyid:CE:FC:D2:CD:28:A7:A9:BA:65:D5:83:BA:0C:6E:64:F1:6A:67:F3:45
                DirName:/CN=openvpn
                serial:03:A5:5C:AA:A1:69:35:C9:37:A6:FF:A6:BC:06:35:BF:34:1D:52:C3

            X509v3 Extended Key Usage: 
                TLS Web Server Authentication
            X509v3 Key Usage: 
                Digital Signature, Key Encipherment
            X509v3 Subject Alternative Name: 
                IP Address:159.223.237.157
    Signature Algorithm: sha256WithRSAEncryption
         50:ee:d0:84:6b:cf:88:f1:77:69:16:15:a5:4d:aa:61:f6:b4:
         5d:97:cf:0d:ca:c4:1f:d3:bc:81:3d:3d:37:38:5f:d3:51:47:
         85:06:a6:ae:f9:9d:84:bf:94:b6:46:56:38:86:a4:b9:6e:0b:
         1d:13:18:43:b1:b8:e8:37:bd:d0:9b:00:49:75:6f:98:05:aa:
         d9:8c:e7:00:62:12:a3:67:6c:f7:24:55:e1:6d:5b:d7:9b:f7:
         cf:1e:0a:94:15:4b:41:46:fe:dc:ff:7a:f3:a8:48:f4:c3:19:
         64:b8:5d:e9:2b:e0:e1:a4:cf:1d:05:d0:f1:5f:69:0b:ac:e3:
         2d:db:47:3b:33:99:7a:73:09:28:32:49:85:7f:d9:1f:73:79:
         91:0a:c3:8d:1d:ec:a3:2a:43:f5:1c:a3:11:c8:20:3b:6c:2f:
         d7:a5:4b:b7:c3:bf:39:c5:f1:1e:d9:ec:da:46:32:4f:8d:57:
         cb:7d:1c:64:47:ac:f2:f5:db:ba:78:2c:87:66:1b:4c:3e:05:
         eb:ef:0b:1c:a4:fa:c4:74:3d:f5:d7:69:ea:d0:17:bf:be:2b:
         ad:18:56:00:25:2b:15:56:57:b1:ee:c8:6d:cf:d6:77:1a:4d:
         55:17:70:b1:31:17:8e:cc:e7:7c:ab:92:02:3e:8b:a8:25:99:
         93:80:14:80
-----BEGIN CERTIFICATE-----
MIIDZjCCAk6gAwIBAgIQQ+4AcMFV4VlvmW/HJSBJeTANBgkqhkiG9w0BAQsFADAS
MRAwDgYDVQQDDAdvcGVudnBuMB4XDTIzMDYyODE0NDQwNloXDTI1MDkzMDE0NDQw
NlowGjEYMBYGA1UEAwwPMTU5LjIyMy4yMzcuMTU3MIIBIjANBgkqhkiG9w0BAQEF
AAOCAQ8AMIIBCgKCAQEAm/sfqYBc/i06UP3/hNHKJDujxZVKaxGa7ZMnMwyF1Ysf
YeXnvVakRP8bZXeSpJk49Xb+oJIg7a8/M3lg2cehQHE2cWC1aq3f/F8I/n1EPdVk
nflWAKkV+jRyJqkBI7ScV7gSZK19DbOF6EoZaS4CSO1HTK52ToRmxupTug6ec605
B7SXnat/NUi3wyq+j4eryLpFRwEd1SYT8xiwhVskaV65WNhT2WA+DYXXuAlC1wSH
J3rrrQFYzkib4/UBkpIwfw1cD5VZqfHriXXg0RLmP+FDFs45B4MYwJQblxqPRztI
FapPoUOO5xDZ0SQlj86MIf464WK8Rf0+uF3fsT6jRQIDAQABo4GvMIGsMAkGA1Ud
EwQCMAAwHQYDVR0OBBYEFGxlHTcwtSjUr61+ANcHo74PlixHME0GA1UdIwRGMESA
FM780s0op6m6ZdWDugxuZPFqZ/NFoRakFDASMRAwDgYDVQQDDAdvcGVudnBughQD
pVyqoWk1yTem/6a8BjW/NB1SwzATBgNVHSUEDDAKBggrBgEFBQcDATALBgNVHQ8E
BAMCBaAwDwYDVR0RBAgwBocEn9/tnTANBgkqhkiG9w0BAQsFAAOCAQEAUO7QhGvP
iPF3aRYVpU2qYfa0XZfPDcrEH9O8gT09Nzhf01FHhQamrvmdhL+UtkZWOIakuW4L
HRMYQ7G46De90JsASXVvmAWq2YznAGISo2ds9yRV4W1b15v3zx4KlBVLQUb+3P96
86hI9MMZZLhd6Svg4aTPHQXQ8V9pC6zjLdtHOzOZenMJKDJJhX/ZH3N5kQrDjR3s
oypD9RyjEcggO2wv16VLt8O/OcXxHtns2kYyT41Xy30cZEes8vXbungsh2YbTD4F
6+8LHKT6xHQ99ddp6tAXv74rrRhWACUrFVZXse7Ibc/WdxpNVRdwsTEXjsznfKuS
Aj6LqCWZk4AUgA==
-----END CERTIFICATE-----
