Certificate:
    Data:
        Version: 3 (0x2)
        Serial Number:
            b9:95:52:e0:fa:44:f4:cb:d4:2e:23:bd:83:71:e4:75
        Signature Algorithm: sha256WithRSAEncryption
        Issuer: CN=openvpn
        Validity
            Not Before: Jun 29 09:48:04 2023 GMT
            Not After : Oct  1 09:48:04 2025 GMT
        Subject: CN=testvpn
        Subject Public Key Info:
            Public Key Algorithm: rsaEncryption
                RSA Public-Key: (2048 bit)
                Modulus:
                    00:a2:1e:44:07:92:b0:92:76:44:f3:9a:6f:fc:04:
                    b5:43:9a:f1:a1:20:69:e6:30:8d:fc:4b:f5:d5:e6:
                    dc:33:63:6e:4c:cf:4c:85:de:0d:24:ee:d5:12:0d:
                    86:0d:29:4d:3d:84:e2:22:f4:9d:c7:35:0c:52:11:
                    a2:6a:89:8a:6d:be:e7:fc:64:f9:d1:24:c7:f1:55:
                    44:6e:37:cc:eb:f5:a7:be:4c:f1:32:98:df:63:c6:
                    b5:7d:18:37:4a:d1:f1:93:18:17:d8:1f:ef:1d:a5:
                    a8:a8:a1:88:77:ac:7c:26:ca:f6:97:e0:b0:ad:11:
                    20:14:ad:b0:ca:7c:f4:33:2f:02:22:0a:17:15:45:
                    6c:e4:37:2b:9f:ff:5e:0a:5c:c4:4d:3c:10:a1:a0:
                    28:ba:ba:da:09:10:e8:eb:14:8d:41:3c:4f:61:a2:
                    7f:53:58:c7:d7:16:dc:08:18:ad:8f:93:6b:50:a2:
                    18:fc:79:50:a6:fe:e0:ee:73:5c:63:82:00:4b:af:
                    8d:31:3e:13:c0:76:37:1f:f3:93:f0:9d:1f:25:97:
                    a8:2b:ea:95:f8:b8:8d:c1:89:dc:12:ca:28:fd:7e:
                    57:e2:dd:cc:95:48:90:7b:b7:f4:e3:ff:bd:03:ea:
                    40:f7:27:4b:20:87:f0:00:93:24:fc:65:57:d8:04:
                    e2:39
                Exponent: 65537 (0x10001)
        X509v3 extensions:
            X509v3 Basic Constraints: 
                CA:FALSE
            X509v3 Subject Key Identifier: 
                67:A4:C0:E9:51:FD:79:F8:A6:AA:D5:C1:83:A5:56:D3:25:E7:95:45
            X509v3 Authority Key Identifier: 
                keyid:CE:FC:D2:CD:28:A7:A9:BA:65:D5:83:BA:0C:6E:64:F1:6A:67:F3:45
                DirName:/CN=openvpn
                serial:03:A5:5C:AA:A1:69:35:C9:37:A6:FF:A6:BC:06:35:BF:34:1D:52:C3

            X509v3 Extended Key Usage: 
                TLS Web Client Authentication
            X509v3 Key Usage: 
                Digital Signature
    Signature Algorithm: sha256WithRSAEncryption
         7f:bd:aa:57:54:7d:3b:8f:f1:e2:c2:7e:95:3c:f8:4e:97:78:
         b2:74:e5:9c:c8:65:32:7b:12:79:15:63:f2:e5:5e:72:01:1e:
         43:ba:aa:5a:80:73:5a:12:b3:e0:96:31:ef:a7:d4:4e:03:14:
         cc:be:e7:17:84:2b:6b:5f:64:c1:a9:a9:57:a7:b1:57:80:f0:
         9c:4e:a6:57:8f:ca:36:6b:ac:5d:1c:a1:43:69:1e:eb:9c:89:
         9f:75:f1:e2:31:81:9b:b8:e4:08:49:57:2f:8b:23:0d:a1:61:
         b9:83:e6:9f:04:25:a4:48:67:90:48:2f:25:1d:04:6c:74:b8:
         35:de:41:12:fc:22:c9:5a:43:e1:87:d8:57:02:92:31:9e:5d:
         3f:0f:59:13:43:c0:01:2e:75:b5:cd:97:7c:5e:7a:48:64:aa:
         79:3f:3d:5d:c1:96:71:5e:d6:f1:e7:26:43:0d:46:4a:5a:70:
         9d:73:4c:e5:5b:19:01:35:ec:77:cd:59:d8:09:00:24:22:95:
         42:69:56:4d:48:dd:b6:82:8c:85:97:a2:69:53:60:f3:f7:91:
         1f:c4:e5:23:d0:f2:27:80:ef:d1:b0:3d:1e:47:5e:df:10:36:
         fa:5a:4e:f7:72:71:e7:e8:2f:1a:a8:8e:88:9c:10:2d:31:ae:
         2c:a8:66:51
-----BEGIN CERTIFICATE-----
MIIDTjCCAjagAwIBAgIRALmVUuD6RPTL1C4jvYNx5HUwDQYJKoZIhvcNAQELBQAw
EjEQMA4GA1UEAwwHb3BlbnZwbjAeFw0yMzA2MjkwOTQ4MDRaFw0yNTEwMDEwOTQ4
MDRaMBIxEDAOBgNVBAMMB3Rlc3R2cG4wggEiMA0GCSqGSIb3DQEBAQUAA4IBDwAw
ggEKAoIBAQCiHkQHkrCSdkTzmm/8BLVDmvGhIGnmMI38S/XV5twzY25Mz0yF3g0k
7tUSDYYNKU09hOIi9J3HNQxSEaJqiYptvuf8ZPnRJMfxVURuN8zr9ae+TPEymN9j
xrV9GDdK0fGTGBfYH+8dpaiooYh3rHwmyvaX4LCtESAUrbDKfPQzLwIiChcVRWzk
Nyuf/14KXMRNPBChoCi6utoJEOjrFI1BPE9hon9TWMfXFtwIGK2Pk2tQohj8eVCm
/uDuc1xjggBLr40xPhPAdjcf85PwnR8ll6gr6pX4uI3BidwSyij9flfi3cyVSJB7
t/Tj/70D6kD3J0sgh/AAkyT8ZVfYBOI5AgMBAAGjgZ4wgZswCQYDVR0TBAIwADAd
BgNVHQ4EFgQUZ6TA6VH9efimqtXBg6VW0yXnlUUwTQYDVR0jBEYwRIAUzvzSzSin
qbpl1YO6DG5k8Wpn80WhFqQUMBIxEDAOBgNVBAMMB29wZW52cG6CFAOlXKqhaTXJ
N6b/prwGNb80HVLDMBMGA1UdJQQMMAoGCCsGAQUFBwMCMAsGA1UdDwQEAwIHgDAN
BgkqhkiG9w0BAQsFAAOCAQEAf72qV1R9O4/x4sJ+lTz4Tpd4snTlnMhlMnsSeRVj
8uVecgEeQ7qqWoBzWhKz4JYx76fUTgMUzL7nF4Qra19kwampV6exV4DwnE6mV4/K
NmusXRyhQ2ke65yJn3Xx4jGBm7jkCElXL4sjDaFhuYPmnwQlpEhnkEgvJR0EbHS4
Nd5BEvwiyVpD4YfYVwKSMZ5dPw9ZE0PAAS51tc2XfF56SGSqeT89XcGWcV7W8ecm
Qw1GSlpwnXNM5VsZATXsd81Z2AkAJCKVQmlWTUjdtoKMhZeiaVNg8/eRH8TlI9Dy
J4Dv0bA9Hkde3xA2+lpO93Jx5+gvGqiOiJwQLTGuLKhmUQ==
-----END CERTIFICATE-----
