Certificate:
    Data:
        Version: 3 (0x2)
        Serial Number:
            fd:af:11:14:46:2c:67:40:41:9b:9e:b5:f4:4c:58:0d
        Signature Algorithm: sha256WithRSAEncryption
        Issuer: CN=openvpn
        Validity
            Not Before: Jun 29 11:09:14 2023 GMT
            Not After : Oct  1 11:09:14 2025 GMT
        Subject: CN=patryk
        Subject Public Key Info:
            Public Key Algorithm: rsaEncryption
                RSA Public-Key: (2048 bit)
                Modulus:
                    00:ad:2f:31:7a:c4:ed:a3:d9:a0:93:8b:f9:3a:48:
                    ab:61:26:32:2c:6b:49:56:94:1e:74:75:e5:98:67:
                    cc:2d:44:57:ae:a3:4c:07:aa:ad:86:12:1b:50:32:
                    70:a3:49:30:f2:49:31:7c:4f:d6:03:d8:d5:6b:72:
                    86:88:7b:58:bf:db:2b:bb:13:f0:f3:f6:47:6b:21:
                    25:61:39:96:65:20:61:14:2a:9f:75:2a:a1:f0:8d:
                    ee:4f:89:8f:e2:43:40:b1:64:0b:2f:26:2f:43:0a:
                    8a:52:1f:74:7e:0a:65:09:a9:17:3e:99:ad:7d:c0:
                    95:8c:05:b5:2e:b1:be:fd:22:ad:72:1c:5a:07:83:
                    76:e5:5c:77:82:2c:c8:a6:34:16:0e:71:89:bb:00:
                    3e:2d:fb:1c:af:36:c0:b6:99:22:de:89:ba:4c:15:
                    a8:2a:72:e9:02:05:2d:ce:45:e0:2b:1e:da:a1:a1:
                    6d:c5:f5:f3:e8:e5:c2:9e:2e:d0:f2:a5:40:a0:2a:
                    ee:05:70:47:35:24:22:50:0e:81:74:f9:3f:22:52:
                    22:8a:1b:5d:b6:5a:41:f6:7f:84:b2:48:8c:c6:99:
                    93:a5:bf:c7:2b:6b:75:2d:8c:58:8d:0e:32:24:5a:
                    05:46:5e:fb:a1:6d:b8:4a:a5:82:92:3a:fe:fa:38:
                    c8:99
                Exponent: 65537 (0x10001)
        X509v3 extensions:
            X509v3 Basic Constraints: 
                CA:FALSE
            X509v3 Subject Key Identifier: 
                E9:02:26:2E:8E:B3:4C:BB:EB:25:BA:BE:10:43:F2:CD:78:84:51:02
            X509v3 Authority Key Identifier: 
                keyid:CE:FC:D2:CD:28:A7:A9:BA:65:D5:83:BA:0C:6E:64:F1:6A:67:F3:45
                DirName:/CN=openvpn
                serial:03:A5:5C:AA:A1:69:35:C9:37:A6:FF:A6:BC:06:35:BF:34:1D:52:C3

            X509v3 Extended Key Usage: 
                TLS Web Client Authentication
            X509v3 Key Usage: 
                Digital Signature
    Signature Algorithm: sha256WithRSAEncryption
         95:08:9a:43:46:4c:42:cb:82:47:a0:22:e6:62:d1:e1:9b:40:
         8f:95:8a:14:f1:63:6a:7a:65:9e:72:4c:b7:5b:d6:f6:d9:d9:
         aa:fa:d5:ba:ac:c1:f1:5d:78:f5:24:84:c1:10:50:e3:fb:39:
         07:d5:59:5a:d3:b2:11:78:fa:be:85:67:b8:b3:56:2a:5c:90:
         a6:40:68:15:a2:e9:16:7b:28:bb:81:65:b9:dc:35:92:7f:47:
         be:e7:ae:a0:68:36:50:56:d3:cf:4e:bf:c2:f2:d5:3f:19:92:
         6e:21:61:7d:b6:73:c0:de:ea:8d:a2:fa:0d:10:07:ca:dc:fe:
         6b:9d:67:d4:56:3c:10:0b:4e:f7:6f:07:9e:59:d0:2d:b0:1e:
         5c:ca:c7:f8:b2:90:38:7d:04:54:ce:15:84:45:0b:f3:98:2e:
         17:b6:69:a2:8c:d2:cf:49:a3:cd:ed:45:7f:a7:22:00:31:7d:
         e2:aa:00:99:bf:7b:c9:b0:e7:c6:77:c4:02:ed:20:ba:02:20:
         31:5d:4e:70:39:2a:e1:c9:10:58:4b:fe:4e:33:6f:fd:b0:ac:
         3c:b4:9f:38:8d:cd:a2:86:28:31:c1:76:a3:5a:2a:73:51:ea:
         aa:fe:62:65:61:d5:b3:65:89:26:d7:b3:f7:26:51:1c:7c:f9:
         51:bf:07:af
-----BEGIN CERTIFICATE-----
MIIDTTCCAjWgAwIBAgIRAP2vERRGLGdAQZuetfRMWA0wDQYJKoZIhvcNAQELBQAw
EjEQMA4GA1UEAwwHb3BlbnZwbjAeFw0yMzA2MjkxMTA5MTRaFw0yNTEwMDExMTA5
MTRaMBExDzANBgNVBAMMBnBhdHJ5azCCASIwDQYJKoZIhvcNAQEBBQADggEPADCC
AQoCggEBAK0vMXrE7aPZoJOL+TpIq2EmMixrSVaUHnR15ZhnzC1EV66jTAeqrYYS
G1AycKNJMPJJMXxP1gPY1Wtyhoh7WL/bK7sT8PP2R2shJWE5lmUgYRQqn3UqofCN
7k+Jj+JDQLFkCy8mL0MKilIfdH4KZQmpFz6ZrX3AlYwFtS6xvv0irXIcWgeDduVc
d4IsyKY0Fg5xibsAPi37HK82wLaZIt6JukwVqCpy6QIFLc5F4Cse2qGhbcX18+jl
wp4u0PKlQKAq7gVwRzUkIlAOgXT5PyJSIoobXbZaQfZ/hLJIjMaZk6W/xytrdS2M
WI0OMiRaBUZe+6FtuEqlgpI6/vo4yJkCAwEAAaOBnjCBmzAJBgNVHRMEAjAAMB0G
A1UdDgQWBBTpAiYujrNMu+slur4QQ/LNeIRRAjBNBgNVHSMERjBEgBTO/NLNKKep
umXVg7oMbmTxamfzRaEWpBQwEjEQMA4GA1UEAwwHb3BlbnZwboIUA6VcqqFpNck3
pv+mvAY1vzQdUsMwEwYDVR0lBAwwCgYIKwYBBQUHAwIwCwYDVR0PBAQDAgeAMA0G
CSqGSIb3DQEBCwUAA4IBAQCVCJpDRkxCy4JHoCLmYtHhm0CPlYoU8WNqemWecky3
W9b22dmq+tW6rMHxXXj1JITBEFDj+zkH1Vla07IRePq+hWe4s1YqXJCmQGgVoukW
eyi7gWW53DWSf0e+566gaDZQVtPPTr/C8tU/GZJuIWF9tnPA3uqNovoNEAfK3P5r
nWfUVjwQC073bweeWdAtsB5cysf4spA4fQRUzhWERQvzmC4XtmmijNLPSaPN7UV/
pyIAMX3iqgCZv3vJsOfGd8QC7SC6AiAxXU5wOSrhyRBYS/5OM2/9sKw8tJ84jc2i
higxwXajWipzUeqq/mJlYdWzZYkm17P3JlEcfPlRvwev
-----END CERTIFICATE-----
